target datalayout = "e-m:e-p270:32:32-p271:32:32-p272:64:64-i64:64-i128:128-f80:128-n8:16:32:64-S128"
target triple = "x86_64-pc-linux-gnu"

%struct.ossl_quic_frame_crypto_st = type { i64, i64, ptr }

; Function Attrs: nounwind uwtable
define internal i32 @encode_frame_hdr(ptr noundef %0, i64 noundef %1) #0 {
  %3 = alloca ptr, align 8
  %4 = alloca i64, align 8
  store ptr %0, ptr %3, align 8, !tbaa !21
  store i64 %1, ptr %4, align 8, !tbaa !8
  %5 = load ptr, ptr %3, align 8, !tbaa !21
  %6 = load i64, ptr %4, align 8, !tbaa !8
  %7 = call i32 @WPACKET_quic_write_vlint(ptr noundef %5, i64 noundef %6)
  ret i32 %7
}

; Function Attrs: nounwind uwtable
define i32 @ossl_quic_wire_encode_frame_crypto_hdr(ptr noundef %0, ptr noundef %1) #0 {
  %3 = alloca i32, align 4
  %4 = alloca ptr, align 8
  %5 = alloca ptr, align 8
  store ptr %0, ptr %4, align 8, !tbaa !21
  store ptr %1, ptr %5, align 8, !tbaa !41
  %6 = load ptr, ptr %4, align 8, !tbaa !21
  %7 = call i32 @encode_frame_hdr(ptr noundef %6, i64 noundef 6)
  %8 = icmp ne i32 %7, 0
  br i1 %8, label %9, label %23

9:                                                ; preds = %2
  %10 = load ptr, ptr %4, align 8, !tbaa !21
  %11 = load ptr, ptr %5, align 8, !tbaa !41
  %12 = getelementptr inbounds nuw %struct.ossl_quic_frame_crypto_st, ptr %11, i32 0, i32 0
  %13 = load i64, ptr %12, align 8, !tbaa !43
  %14 = call i32 @WPACKET_quic_write_vlint(ptr noundef %10, i64 noundef %13)
  %15 = icmp ne i32 %14, 0
  br i1 %15, label %16, label %23

16:                                               ; preds = %9
  %17 = load ptr, ptr %4, align 8, !tbaa !21
  %18 = load ptr, ptr %5, align 8, !tbaa !41
  %19 = getelementptr inbounds nuw %struct.ossl_quic_frame_crypto_st, ptr %18, i32 0, i32 1
  %20 = load i64, ptr %19, align 8, !tbaa !46
  %21 = call i32 @WPACKET_quic_write_vlint(ptr noundef %17, i64 noundef %20)
  %22 = icmp ne i32 %21, 0
  br i1 %22, label %24, label %23

23:                                               ; preds = %16, %9, %2
  store i32 0, ptr %3, align 4
  br label %25

24:                                               ; preds = %16
  store i32 1, ptr %3, align 4
  br label %25

25:                                               ; preds = %24, %23
  %26 = load i32, ptr %3, align 4
  ret i32 %26
}